target datalayout = "e-m:e-p270:32:32-p271:32:32-p272:64:64-i64:64-i128:128-f80:128-n8:16:32:64-S128"
target triple = "x86_64-pc-linux-gnu"

%struct._GByteArray = type { ptr, i32 }

@.str.1116 = private unnamed_addr constant [67 x i8] c"Invalid argument. Expected either a CN ID [1-239] or a MAC address\00", align 1

; Function Attrs: nounwind uwtable
define internal zeroext i1 @epl_uat_fld_cn_check_cb(ptr noundef %0, ptr noundef %1, i32 noundef %2, ptr noundef %3, ptr noundef %4, ptr noundef %5) #0 {
  %7 = alloca i1, align 1
  %8 = alloca ptr, align 8
  %9 = alloca ptr, align 8
  %10 = alloca i32, align 4
  %11 = alloca ptr, align 8
  %12 = alloca ptr, align 8
  %13 = alloca ptr, align 8
  %14 = alloca i8, align 1
  %15 = alloca ptr, align 8
  store ptr %0, ptr %8, align 8
  store ptr %1, ptr %9, align 8
  store i32 %2, ptr %10, align 4
  store ptr %3, ptr %11, align 8
  store ptr %4, ptr %12, align 8
  store ptr %5, ptr %13, align 8
  %16 = load ptr, ptr %9, align 8
  %17 = call zeroext i1 @ws_strtou8(ptr noundef %16, ptr noundef null, ptr noundef %14)
  br i1 %17, label %18, label %27

18:                                               ; preds = %6
  %19 = load i8, ptr %14, align 1
  %20 = zext i8 %19 to i32
  %21 = icmp slt i32 0, %20
  br i1 %21, label %22, label %27

22:                                               ; preds = %18
  %23 = load i8, ptr %14, align 1
  %24 = zext i8 %23 to i32
  %25 = icmp slt i32 %24, 240
  br i1 %25, label %26, label %27

26:                                               ; preds = %22
  store i1 true, ptr %7, align 1
  br label %46

27:                                               ; preds = %22, %18, %6
  %28 = call ptr @g_byte_array_new()
  store ptr %28, ptr %15, align 8
  %29 = load ptr, ptr %9, align 8
  %30 = load ptr, ptr %15, align 8
  %31 = call i32 @hex_str_to_bytes(ptr noundef %29, ptr noundef %30, i32 noundef 0)
  %32 = icmp ne i32 %31, 0
  br i1 %32, label %33, label %41

33:                                               ; preds = %27
  %34 = load ptr, ptr %15, align 8
  %35 = getelementptr inbounds %struct._GByteArray, ptr %34, i32 0, i32 1
  %36 = load i32, ptr %35, align 8
  %37 = icmp eq i32 %36, 6
  br i1 %37, label %38, label %41

38:                                               ; preds = %33
  %39 = load ptr, ptr %15, align 8
  %40 = call ptr @g_byte_array_free(ptr noundef %39, i32 noundef 1)
  store i1 true, ptr %7, align 1
  br label %46

41:                                               ; preds = %33, %27
  %42 = load ptr, ptr %15, align 8
  %43 = call ptr @g_byte_array_free(ptr noundef %42, i32 noundef 1)
  %44 = call noalias ptr @g_strdup(ptr noundef @.str.1116)
  %45 = load ptr, ptr %13, align 8
  store ptr %44, ptr %45, align 8
  store i1 false, ptr %7, align 1
  br label %46

46:                                               ; preds = %41, %38, %26
  %47 = load i1, ptr %7, align 1
  ret i1 %47
}