; Function Attrs: nounwind uwtable
define internal noundef zeroext i1 @epl_uat_fld_cn_check_cb(ptr readnone captures(none) %0, ptr noundef %1, i32 %2, ptr readnone captures(none) %3, ptr readnone captures(none) %4, ptr noundef writeonly captures(none) %5) #2 {
  %7 = alloca i8, align 1
  %8 = call zeroext i1 @ws_strtou8(ptr noundef %1, ptr noundef null, ptr noundef nonnull %7) #18
  %9 = load i8, ptr %7, align 1
  %10 = add i8 %9, -1
  %11 = icmp ult i8 %10, -17
  %or.cond5 = select i1 %8, i1 %11, i1 false
  br i1 %or.cond5, label %24, label %12

12:                                               ; preds = %6
  %13 = call ptr @g_byte_array_new() #18
  %14 = call i32 @hex_str_to_bytes(ptr noundef %1, ptr noundef %13, i32 noundef 0) #18
  %.not = icmp eq i32 %14, 0
  br i1 %.not, label %21, label %15

15:                                               ; preds = %12
  %16 = getelementptr inbounds nuw i8, ptr %13, i64 8
  %17 = load i32, ptr %16, align 8
  %18 = icmp eq i32 %17, 6
  br i1 %18, label %19, label %21

19:                                               ; preds = %15
  %20 = call ptr @g_byte_array_free(ptr noundef nonnull %13, i32 noundef 1) #18
  br label %24

21:                                               ; preds = %15, %12
  %22 = call ptr @g_byte_array_free(ptr noundef %13, i32 noundef 1) #18
  %23 = call noalias ptr @g_strdup(ptr noundef nonnull @.str.1116) #18
  store ptr %23, ptr %5, align 8
  br label %24

24:                                               ; preds = %6, %21, %19
  %.0 = phi i1 [ true, %19 ], [ false, %21 ], [ true, %6 ]
  ret i1 %.0
}